target datalayout = "e-m:e-p270:32:32-p271:32:32-p272:64:64-i64:64-i128:128-f80:128-n8:16:32:64-S128"
target triple = "x86_64-pc-linux-gnu"

%struct.Abc_Ntk_t_ = type { i32, i32, ptr, ptr, ptr, ptr, ptr, ptr, ptr, ptr, ptr, ptr, ptr, [11 x i32], i32, i32, i32, i32, ptr, i32, ptr, ptr, i32, i32, i32, double, i32, %struct.Vec_Int_t_, ptr, ptr, ptr, ptr, ptr, float, i32, ptr, ptr, ptr, ptr, ptr, ptr, ptr, ptr, ptr, ptr, ptr, ptr, ptr, ptr, ptr, ptr, ptr, ptr, ptr, ptr, ptr, ptr }
%struct.Vec_Int_t_ = type { i32, i32, ptr }
%struct.Abc_Obj_t_ = type { ptr, ptr, i32, i32, %struct.Vec_Int_t_, %struct.Vec_Int_t_, %union.anon, %union.anon.0 }
%union.anon = type { ptr }
%union.anon.0 = type { ptr }
%struct.Vec_Ptr_t_ = type { i32, i32, ptr }

; Function Attrs: inlinehint nounwind uwtable
define internal ptr @Abc_ObjFanin(ptr noundef %0, i32 noundef %1) #2 {
  %3 = alloca ptr, align 8
  %4 = alloca i32, align 4
  store ptr %0, ptr %3, align 8, !tbaa !3
  store i32 %1, ptr %4, align 4, !tbaa !10
  %5 = load ptr, ptr %3, align 8, !tbaa !3
  %6 = getelementptr inbounds nuw %struct.Abc_Obj_t_, ptr %5, i32 0, i32 0
  %7 = load ptr, ptr %6, align 8, !tbaa !37
  %8 = getelementptr inbounds nuw %struct.Abc_Ntk_t_, ptr %7, i32 0, i32 5
  %9 = load ptr, ptr %8, align 8, !tbaa !38
  %10 = getelementptr inbounds nuw %struct.Vec_Ptr_t_, ptr %9, i32 0, i32 2
  %11 = load ptr, ptr %10, align 8, !tbaa !34
  %12 = load ptr, ptr %3, align 8, !tbaa !3
  %13 = getelementptr inbounds nuw %struct.Abc_Obj_t_, ptr %12, i32 0, i32 4
  %14 = getelementptr inbounds nuw %struct.Vec_Int_t_, ptr %13, i32 0, i32 2
  %15 = load ptr, ptr %14, align 8, !tbaa !39
  %16 = load i32, ptr %4, align 4, !tbaa !10
  %17 = sext i32 %16 to i64
  %18 = getelementptr inbounds i32, ptr %15, i64 %17
  %19 = load i32, ptr %18, align 4, !tbaa !10
  %20 = sext i32 %19 to i64
  %21 = getelementptr inbounds ptr, ptr %11, i64 %20
  %22 = load ptr, ptr %21, align 8, !tbaa !30
  ret ptr %22
}

; Function Attrs: inlinehint nounwind uwtable
define internal i32 @Abc_ObjFaninNum(ptr noundef %0) #2 {
  %2 = alloca ptr, align 8
  store ptr %0, ptr %2, align 8, !tbaa !3
  %3 = load ptr, ptr %2, align 8, !tbaa !3
  %4 = getelementptr inbounds nuw %struct.Abc_Obj_t_, ptr %3, i32 0, i32 4
  %5 = getelementptr inbounds nuw %struct.Vec_Int_t_, ptr %4, i32 0, i32 1
  %6 = load i32, ptr %5, align 4, !tbaa !35
  ret i32 %6
}

; Function Attrs: inlinehint nounwind uwtable
define internal i32 @Abc_ObjIsCi(ptr noundef %0) #2 {
  %2 = alloca ptr, align 8
  store ptr %0, ptr %2, align 8, !tbaa !3
  %3 = load ptr, ptr %2, align 8, !tbaa !3
  %4 = getelementptr inbounds nuw %struct.Abc_Obj_t_, ptr %3, i32 0, i32 3
  %5 = load i32, ptr %4, align 4
  %6 = and i32 %5, 15
  %7 = icmp eq i32 %6, 2
  br i1 %7, label %14, label %8

8:                                                ; preds = %1
  %9 = load ptr, ptr %2, align 8, !tbaa !3
  %10 = getelementptr inbounds nuw %struct.Abc_Obj_t_, ptr %9, i32 0, i32 3
  %11 = load i32, ptr %10, align 4
  %12 = and i32 %11, 15
  %13 = icmp eq i32 %12, 5
  br label %14

14:                                               ; preds = %8, %1
  %15 = phi i1 [ true, %1 ], [ %13, %8 ]
  %16 = zext i1 %15 to i32
  ret i32 %16
}

; Function Attrs: nounwind uwtable
define i32 @Abc_MfsNodeRef_rec(ptr noundef %0) #0 {
  %2 = alloca i32, align 4
  %3 = alloca ptr, align 8
  %4 = alloca ptr, align 8
  %5 = alloca i32, align 4
  %6 = alloca i32, align 4
  %7 = alloca i32, align 4
  store ptr %0, ptr %3, align 8, !tbaa !3
  call void @llvm.lifetime.start.p0(i64 8, ptr %4) #7
  call void @llvm.lifetime.start.p0(i64 4, ptr %5) #7
  call void @llvm.lifetime.start.p0(i64 4, ptr %6) #7
  store i32 1, ptr %6, align 4, !tbaa !10
  %8 = load ptr, ptr %3, align 8, !tbaa !3
  %9 = call i32 @Abc_ObjIsCi(ptr noundef %8)
  %10 = icmp ne i32 %9, 0
  br i1 %10, label %11, label %12

11:                                               ; preds = %1
  store i32 0, ptr %2, align 4
  store i32 1, ptr %7, align 4
  br label %42

12:                                               ; preds = %1
  store i32 0, ptr %5, align 4, !tbaa !10
  br label %13

13:                                               ; preds = %37, %12
  %14 = load i32, ptr %5, align 4, !tbaa !10
  %15 = load ptr, ptr %3, align 8, !tbaa !3
  %16 = call i32 @Abc_ObjFaninNum(ptr noundef %15)
  %17 = icmp slt i32 %14, %16
  br i1 %17, label %18, label %22

18:                                               ; preds = %13
  %19 = load ptr, ptr %3, align 8, !tbaa !3
  %20 = load i32, ptr %5, align 4, !tbaa !10
  %21 = call ptr @Abc_ObjFanin(ptr noundef %19, i32 noundef %20)
  store ptr %21, ptr %4, align 8, !tbaa !3
  br label %22

22:                                               ; preds = %18, %13
  %23 = phi i1 [ false, %13 ], [ true, %18 ]
  br i1 %23, label %24, label %40

24:                                               ; preds = %22
  %25 = load ptr, ptr %4, align 8, !tbaa !3
  %26 = getelementptr inbounds nuw %struct.Abc_Obj_t_, ptr %25, i32 0, i32 5
  %27 = getelementptr inbounds nuw %struct.Vec_Int_t_, ptr %26, i32 0, i32 1
  %28 = load i32, ptr %27, align 4, !tbaa !41
  %29 = add nsw i32 %28, 1
  store i32 %29, ptr %27, align 4, !tbaa !41
  %30 = icmp eq i32 %28, 0
  br i1 %30, label %31, label %36

31:                                               ; preds = %24
  %32 = load ptr, ptr %4, align 8, !tbaa !3
  %33 = call i32 @Abc_MfsNodeRef_rec(ptr noundef %32)
  %34 = load i32, ptr %6, align 4, !tbaa !10
  %35 = add nsw i32 %34, %33
  store i32 %35, ptr %6, align 4, !tbaa !10
  br label %36

36:                                               ; preds = %31, %24
  br label %37

37:                                               ; preds = %36
  %38 = load i32, ptr %5, align 4, !tbaa !10
  %39 = add nsw i32 %38, 1
  store i32 %39, ptr %5, align 4, !tbaa !10
  br label %13, !llvm.loop !44

40:                                               ; preds = %22
  %41 = load i32, ptr %6, align 4, !tbaa !10
  store i32 %41, ptr %2, align 4
  store i32 1, ptr %7, align 4
  br label %42

42:                                               ; preds = %40, %11
  call void @llvm.lifetime.end.p0(i64 4, ptr %6) #7
  call void @llvm.lifetime.end.p0(i64 4, ptr %5) #7
  call void @llvm.lifetime.end.p0(i64 8, ptr %4) #7
  %43 = load i32, ptr %2, align 4
  ret i32 %43
}